target datalayout = "e-m:e-p270:32:32-p271:32:32-p272:64:64-i64:64-i128:128-f80:128-n8:16:32:64-S128"
target triple = "x86_64-pc-linux-gnu"

%struct.mi_stats_s = type { %struct.mi_stat_count_s, %struct.mi_stat_count_s, %struct.mi_stat_count_s, %struct.mi_stat_count_s, %struct.mi_stat_count_s, %struct.mi_stat_count_s, %struct.mi_stat_count_s, %struct.mi_stat_count_s, %struct.mi_stat_count_s, %struct.mi_stat_count_s, %struct.mi_stat_count_s, %struct.mi_stat_count_s, %struct.mi_stat_count_s, %struct.mi_stat_count_s, %struct.mi_stat_count_s, %struct.mi_stat_counter_s, %struct.mi_stat_counter_s, %struct.mi_stat_counter_s, %struct.mi_stat_counter_s, %struct.mi_stat_counter_s, %struct.mi_stat_counter_s, %struct.mi_stat_counter_s, %struct.mi_stat_counter_s, %struct.mi_stat_counter_s, %struct.mi_stat_counter_s, %struct.mi_stat_counter_s, %struct.mi_stat_counter_s, %struct.mi_stat_counter_s, %struct.mi_stat_counter_s }
%struct.mi_stat_count_s = type { i64, i64, i64, i64 }
%struct.mi_stat_counter_s = type { i64, i64 }
%struct.mi_heap_s = type { ptr, ptr, i64, i32, i64, [2 x i64], %struct.mi_random_cxt_s, i64, i64, i64, ptr, i8, i8, [129 x ptr], [75 x %struct.mi_page_queue_s] }
%struct.mi_random_cxt_s = type { [16 x i32], [16 x i32], i32, i8 }
%struct.mi_page_queue_s = type { ptr, ptr, i64 }
%struct.mi_commit_mask_s = type { [8 x i64] }
%struct.mi_segment_s = type { %struct.mi_memid_s, i8, i8, i64, ptr, i64, %struct.mi_commit_mask_s, %struct.mi_commit_mask_s, ptr, i8, i8, i64, i64, i64, i64, ptr, ptr, i64, i64, i32, i64, i64, [513 x %struct.mi_page_s] }
%struct.mi_memid_s = type { %union.anon, i8, i8, i8, i32 }
%union.anon = type { %struct.mi_memid_os_info }
%struct.mi_memid_os_info = type { ptr, i64 }
%struct.mi_page_s = type { i32, i32, i8, i16, i16, %union.mi_page_flags_s, i8, ptr, ptr, i16, i8, i8, i64, ptr, i64, i64, ptr, ptr, [1 x ptr] }
%union.mi_page_flags_s = type { i8 }
%struct.mi_segments_tld_s = type { [36 x %struct.mi_span_queue_s], i64, i64, i64, i64, i64, ptr, ptr }
%struct.mi_span_queue_s = type { ptr, ptr, i64 }
%struct.mi_tld_s = type { i64, i8, ptr, ptr, %struct.mi_segments_tld_s, %struct.mi_stats_s }

; Function Attrs: nounwind uwtable
define hidden zeroext i1 @_mi_segment_attempt_reclaim(ptr noundef %0, ptr noundef %1) #0 {
  %3 = alloca i1, align 1
  %4 = alloca ptr, align 8
  %5 = alloca ptr, align 8
  %6 = alloca i64, align 8
  %7 = alloca i64, align 8
  %8 = alloca i32, align 4
  %9 = alloca ptr, align 8
  store ptr %0, ptr %4, align 8, !tbaa !63
  store ptr %1, ptr %5, align 8, !tbaa !19
  %10 = load ptr, ptr %5, align 8, !tbaa !19
  %11 = getelementptr inbounds nuw %struct.mi_segment_s, ptr %10, i32 0, i32 21
  %12 = load atomic i64, ptr %11 monotonic, align 8
  store i64 %12, ptr %6, align 8
  %13 = load i64, ptr %6, align 8, !tbaa !8
  %14 = icmp ne i64 %13, 0
  br i1 %14, label %15, label %16

15:                                               ; preds = %2
  store i1 false, ptr %3, align 1
  br label %85

16:                                               ; preds = %2
  %17 = load ptr, ptr %5, align 8, !tbaa !19
  %18 = getelementptr inbounds nuw %struct.mi_segment_s, ptr %17, i32 0, i32 4
  %19 = load ptr, ptr %18, align 8, !tbaa !65
  %20 = load ptr, ptr %4, align 8, !tbaa !63
  %21 = getelementptr inbounds nuw %struct.mi_heap_s, ptr %20, i32 0, i32 0
  %22 = load ptr, ptr %21, align 8, !tbaa !66
  %23 = getelementptr inbounds nuw %struct.mi_tld_s, ptr %22, i32 0, i32 4
  %24 = getelementptr inbounds nuw %struct.mi_segments_tld_s, ptr %23, i32 0, i32 6
  %25 = load ptr, ptr %24, align 8, !tbaa !70
  %26 = icmp ne ptr %19, %25
  br i1 %26, label %27, label %28

27:                                               ; preds = %16
  store i1 false, ptr %3, align 1
  br label %85

28:                                               ; preds = %16
  %29 = load ptr, ptr %4, align 8, !tbaa !63
  %30 = load ptr, ptr %5, align 8, !tbaa !19
  %31 = getelementptr inbounds nuw %struct.mi_segment_s, ptr %30, i32 0, i32 0
  %32 = call zeroext i1 @_mi_heap_memid_is_suitable(ptr noundef %29, ptr noundef byval(%struct.mi_memid_s) align 8 %31) #9
  br i1 %32, label %34, label %33

33:                                               ; preds = %28
  store i1 false, ptr %3, align 1
  br label %85

34:                                               ; preds = %28
  call void @llvm.lifetime.start.p0(i64 8, ptr %7) #8
  %35 = call i64 @_mi_option_get_fast(i32 noundef 35) #9
  store i64 %35, ptr %7, align 8, !tbaa !8
  %36 = load i64, ptr %7, align 8, !tbaa !8
  %37 = icmp sgt i64 %36, 0
  br i1 %37, label %38, label %48

38:                                               ; preds = %34
  %39 = load i64, ptr %7, align 8, !tbaa !8
  %40 = load ptr, ptr %4, align 8, !tbaa !63
  %41 = getelementptr inbounds nuw %struct.mi_heap_s, ptr %40, i32 0, i32 0
  %42 = load ptr, ptr %41, align 8, !tbaa !66
  %43 = getelementptr inbounds nuw %struct.mi_tld_s, ptr %42, i32 0, i32 4
  %44 = getelementptr inbounds nuw %struct.mi_segments_tld_s, ptr %43, i32 0, i32 1
  %45 = load i64, ptr %44, align 8, !tbaa !76
  %46 = icmp ule i64 %39, %45
  br i1 %46, label %47, label %48

47:                                               ; preds = %38
  store i1 false, ptr %3, align 1
  store i32 1, ptr %8, align 4
  br label %84

48:                                               ; preds = %38, %34
  %49 = load ptr, ptr %5, align 8, !tbaa !19
  %50 = getelementptr inbounds nuw %struct.mi_segment_s, ptr %49, i32 0, i32 0
  %51 = getelementptr inbounds nuw %struct.mi_memid_s, ptr %50, i32 0, i32 4
  %52 = load i32, ptr %51, align 4, !tbaa !58
  %53 = icmp eq i32 %52, 6
  br i1 %53, label %54, label %70

54:                                               ; preds = %48
  %55 = load ptr, ptr %4, align 8, !tbaa !63
  %56 = getelementptr inbounds nuw %struct.mi_heap_s, ptr %55, i32 0, i32 0
  %57 = load ptr, ptr %56, align 8, !tbaa !66
  %58 = getelementptr inbounds nuw %struct.mi_tld_s, ptr %57, i32 0, i32 4
  %59 = getelementptr inbounds nuw %struct.mi_segments_tld_s, ptr %58, i32 0, i32 5
  %60 = load i64, ptr %59, align 8, !tbaa !77
  %61 = mul i64 %60, 2
  %62 = load ptr, ptr %4, align 8, !tbaa !63
  %63 = getelementptr inbounds nuw %struct.mi_heap_s, ptr %62, i32 0, i32 0
  %64 = load ptr, ptr %63, align 8, !tbaa !66
  %65 = getelementptr inbounds nuw %struct.mi_tld_s, ptr %64, i32 0, i32 4
  %66 = getelementptr inbounds nuw %struct.mi_segments_tld_s, ptr %65, i32 0, i32 1
  %67 = load i64, ptr %66, align 8, !tbaa !76
  %68 = icmp ugt i64 %61, %67
  br i1 %68, label %69, label %70

69:                                               ; preds = %54
  store i1 false, ptr %3, align 1
  store i32 1, ptr %8, align 4
  br label %84

70:                                               ; preds = %54, %48
  %71 = load ptr, ptr %5, align 8, !tbaa !19
  %72 = call zeroext i1 @_mi_arena_segment_clear_abandoned(ptr noundef %71) #9
  br i1 %72, label %73, label %83

73:                                               ; preds = %70
  call void @llvm.lifetime.start.p0(i64 8, ptr %9) #8
  %74 = load ptr, ptr %5, align 8, !tbaa !19
  %75 = load ptr, ptr %4, align 8, !tbaa !63
  %76 = load ptr, ptr %4, align 8, !tbaa !63
  %77 = getelementptr inbounds nuw %struct.mi_heap_s, ptr %76, i32 0, i32 0
  %78 = load ptr, ptr %77, align 8, !tbaa !66
  %79 = getelementptr inbounds nuw %struct.mi_tld_s, ptr %78, i32 0, i32 4
  %80 = call ptr @mi_segment_reclaim(ptr noundef %74, ptr noundef %75, i64 noundef 0, ptr noundef null, ptr noundef %79) #9
  store ptr %80, ptr %9, align 8, !tbaa !19
  %81 = load ptr, ptr %9, align 8, !tbaa !19
  %82 = icmp ne ptr %81, null
  store i1 %82, ptr %3, align 1
  store i32 1, ptr %8, align 4
  call void @llvm.lifetime.end.p0(i64 8, ptr %9) #8
  br label %84

83:                                               ; preds = %70
  store i1 false, ptr %3, align 1
  store i32 1, ptr %8, align 4
  br label %84

84:                                               ; preds = %83, %73, %69, %47
  call void @llvm.lifetime.end.p0(i64 8, ptr %7) #8
  br label %85

85:                                               ; preds = %84, %33, %27, %15
  %86 = load i1, ptr %3, align 1
  ret i1 %86
}