; Function Attrs: nounwind uwtable
define hidden noundef zeroext i1 @_mi_segment_attempt_reclaim(ptr noundef %0, ptr noundef %1) local_unnamed_addr #4 {
  %3 = getelementptr inbounds nuw i8, ptr %1, i64 280
  %4 = load atomic i64, ptr %3 monotonic, align 8
  %.not = icmp eq i64 %4, 0
  br i1 %.not, label %5, label %39

5:                                                ; preds = %2
  %6 = getelementptr inbounds nuw i8, ptr %1, i64 40
  %7 = load ptr, ptr %6, align 8, !tbaa !66
  %8 = load ptr, ptr %0, align 8, !tbaa !67
  %9 = getelementptr inbounds nuw i8, ptr %8, i64 936
  %10 = load ptr, ptr %9, align 8, !tbaa !72
  %.not18 = icmp eq ptr %7, %10
  br i1 %.not18, label %11, label %39

11:                                               ; preds = %5
  %12 = tail call zeroext i1 @_mi_heap_memid_is_suitable(ptr noundef nonnull %0, ptr noundef nonnull byval(%struct.mi_memid_s) align 8 %1) #11
  br i1 %12, label %13, label %39

13:                                               ; preds = %11
  %14 = tail call i64 @_mi_option_get_fast(i32 noundef 35) #11
  %15 = icmp sgt i64 %14, 0
  br i1 %15, label %16, label %20

16:                                               ; preds = %13
  %17 = load ptr, ptr %0, align 8, !tbaa !67
  %18 = getelementptr inbounds nuw i8, ptr %17, i64 896
  %19 = load i64, ptr %18, align 8, !tbaa !78
  %.not19 = icmp ugt i64 %14, %19
  br i1 %.not19, label %20, label %39

20:                                               ; preds = %16, %13
  %21 = getelementptr inbounds nuw i8, ptr %1, i64 20
  %22 = load i32, ptr %21, align 4, !tbaa !64
  %23 = icmp eq i32 %22, 6
  br i1 %23, label %24, label %32

24:                                               ; preds = %20
  %25 = load ptr, ptr %0, align 8, !tbaa !67
  %26 = getelementptr inbounds nuw i8, ptr %25, i64 928
  %27 = load i64, ptr %26, align 8, !tbaa !79
  %28 = shl i64 %27, 1
  %29 = getelementptr inbounds nuw i8, ptr %25, i64 896
  %30 = load i64, ptr %29, align 8, !tbaa !78
  %31 = icmp ugt i64 %28, %30
  br i1 %31, label %39, label %32

32:                                               ; preds = %24, %20
  %33 = tail call zeroext i1 @_mi_arena_segment_clear_abandoned(ptr noundef nonnull %1) #11
  br i1 %33, label %34, label %39

34:                                               ; preds = %32
  %35 = load ptr, ptr %0, align 8, !tbaa !67
  %36 = getelementptr inbounds nuw i8, ptr %35, i64 32
  %37 = tail call fastcc ptr @mi_segment_reclaim(ptr noundef nonnull %1, ptr noundef nonnull %0, i64 noundef 0, ptr noundef null, ptr noundef nonnull %36) #10
  %38 = icmp ne ptr %37, null
  br label %39

39:                                               ; preds = %34, %16, %24, %32, %11, %5, %2
  %.0 = phi i1 [ false, %2 ], [ false, %5 ], [ false, %11 ], [ %38, %34 ], [ false, %16 ], [ false, %24 ], [ false, %32 ]
  ret i1 %.0
}